target datalayout = "e-m:e-p270:32:32-p271:32:32-p272:64:64-i64:64-i128:128-f80:128-n8:16:32:64-S128"
target triple = "x86_64-pc-linux-gnu"

%class.dtPathQueue = type { [8 x %"struct.dtPathQueue::PathQuery"], i32, i32, i32, ptr }
%"struct.dtPathQueue::PathQuery" = type { i32, [3 x float], [3 x float], i32, i32, ptr, i32, i32, i32, ptr }

; Function Attrs: mustprogress nounwind uwtable
define void @_ZN11dtPathQueueC2Ev(ptr noundef nonnull align 8 dereferenceable(600) %0) unnamed_addr #0 align 2 {
  %2 = alloca ptr, align 8
  %3 = alloca i32, align 4
  store ptr %0, ptr %2, align 8
  %4 = load ptr, ptr %2, align 8
  %5 = getelementptr inbounds %class.dtPathQueue, ptr %4, i32 0, i32 1
  store i32 1, ptr %5, align 8
  %6 = getelementptr inbounds %class.dtPathQueue, ptr %4, i32 0, i32 2
  store i32 0, ptr %6, align 4
  %7 = getelementptr inbounds %class.dtPathQueue, ptr %4, i32 0, i32 3
  store i32 0, ptr %7, align 8
  %8 = getelementptr inbounds %class.dtPathQueue, ptr %4, i32 0, i32 4
  store ptr null, ptr %8, align 8
  store i32 0, ptr %3, align 4
  br label %9

9:                                                ; preds = %18, %1
  %10 = load i32, ptr %3, align 4
  %11 = icmp slt i32 %10, 8
  br i1 %11, label %12, label %21

12:                                               ; preds = %9
  %13 = getelementptr inbounds %class.dtPathQueue, ptr %4, i32 0, i32 0
  %14 = load i32, ptr %3, align 4
  %15 = sext i32 %14 to i64
  %16 = getelementptr inbounds [8 x %"struct.dtPathQueue::PathQuery"], ptr %13, i64 0, i64 %15
  %17 = getelementptr inbounds %"struct.dtPathQueue::PathQuery", ptr %16, i32 0, i32 5
  store ptr null, ptr %17, align 8
  br label %18

18:                                               ; preds = %12
  %19 = load i32, ptr %3, align 4
  %20 = add nsw i32 %19, 1
  store i32 %20, ptr %3, align 4
  br label %9, !llvm.loop !4

21:                                               ; preds = %9
  ret void
}