; Function Attrs: mustprogress nofree norecurse nosync nounwind memory(argmem: write) uwtable
define void @_ZN11dtPathQueueC2Ev(ptr noundef nonnull writeonly align 8 captures(none) dereferenceable(600) initializes((576, 588), (592, 600)) %0) unnamed_addr #0 align 2 {
  %2 = getelementptr inbounds nuw i8, ptr %0, i64 576
  store i32 1, ptr %2, align 8
  %3 = getelementptr inbounds nuw i8, ptr %0, i64 580
  store i32 0, ptr %3, align 4
  %4 = getelementptr inbounds nuw i8, ptr %0, i64 584
  store i32 0, ptr %4, align 8
  %5 = getelementptr inbounds nuw i8, ptr %0, i64 592
  store ptr null, ptr %5, align 8
  br label %6

6:                                                ; preds = %1, %6
  %indvars.iv = phi i64 [ 0, %1 ], [ %indvars.iv.next, %6 ]
  %7 = getelementptr inbounds nuw [8 x %"struct.dtPathQueue::PathQuery"], ptr %0, i64 0, i64 %indvars.iv, i32 5
  store ptr null, ptr %7, align 8
  %indvars.iv.next = add nuw nsw i64 %indvars.iv, 1
  %exitcond.not = icmp eq i64 %indvars.iv.next, 8
  br i1 %exitcond.not, label %8, label %6, !llvm.loop !4

8:                                                ; preds = %6
  ret void
}